; Function Attrs: mustprogress nofree norecurse nosync nounwind willreturn memory(argmem: read) uwtable
define hidden { ptr, i64 } @_ZNK9MemRegion6_unionES_(ptr nocapture noundef nonnull readonly align 8 dereferenceable(16) %0, ptr %1, i64 %2) local_unnamed_addr #0 align 2 {
  %4 = getelementptr inbounds i8, ptr %0, i64 8
  %5 = load i64, ptr %4, align 8
  %6 = icmp eq i64 %5, 0
  br i1 %6, label %22, label %7

7:                                                ; preds = %3
  %8 = icmp eq i64 %2, 0
  %9 = load ptr, ptr %0, align 8
  br i1 %8, label %10, label %11

10:                                               ; preds = %7
  %.idx = and i64 %5, 2305843009213693951
  br label %22

11:                                               ; preds = %7
  %12 = icmp ult ptr %9, %1
  %13 = select i1 %12, ptr %9, ptr %1
  %14 = getelementptr inbounds ptr, ptr %9, i64 %5
  %15 = getelementptr inbounds ptr, ptr %1, i64 %2
  %16 = icmp ugt ptr %14, %15
  %17 = select i1 %16, ptr %14, ptr %15
  %18 = ptrtoint ptr %17 to i64
  %19 = ptrtoint ptr %13 to i64
  %20 = sub i64 %18, %19
  %21 = lshr i64 %20, 3
  br label %22

22:                                               ; preds = %3, %11, %10
  %.sroa.6.0 = phi i64 [ %.idx, %10 ], [ %21, %11 ], [ %2, %3 ]
  %.sroa.05.0 = phi ptr [ %9, %10 ], [ %13, %11 ], [ %1, %3 ]
  %.fca.0.insert = insertvalue { ptr, i64 } poison, ptr %.sroa.05.0, 0
  %.fca.1.insert = insertvalue { ptr, i64 } %.fca.0.insert, i64 %.sroa.6.0, 1
  ret { ptr, i64 } %.fca.1.insert
}